target datalayout = "e-m:e-p270:32:32-p271:32:32-p272:64:64-i64:64-i128:128-f80:128-n8:16:32:64-S128"
target triple = "x86_64-pc-linux-gnu"

%struct.dict = type { ptr, [2 x ptr], [2 x i64], i64, i16, [2 x i8], i16, [0 x ptr] }

; Function Attrs: inlinehint nounwind uwtable
define internal i32 @isExpiryDictValidForSamplingCb(ptr noundef %0) #3 {
  %2 = alloca i32, align 4
  %3 = alloca ptr, align 8
  %4 = alloca i64, align 8
  %5 = alloca i64, align 8
  %6 = alloca i32, align 4
  store ptr %0, ptr %3, align 8, !tbaa !76
  call void @llvm.lifetime.start.p0(i64 8, ptr %4) #8
  %7 = load ptr, ptr %3, align 8, !tbaa !76
  %8 = getelementptr inbounds nuw %struct.dict, ptr %7, i32 0, i32 2
  %9 = getelementptr inbounds [2 x i64], ptr %8, i64 0, i64 0
  %10 = load i64, ptr %9, align 8, !tbaa !23
  %11 = load ptr, ptr %3, align 8, !tbaa !76
  %12 = getelementptr inbounds nuw %struct.dict, ptr %11, i32 0, i32 2
  %13 = getelementptr inbounds [2 x i64], ptr %12, i64 0, i64 1
  %14 = load i64, ptr %13, align 8, !tbaa !23
  %15 = add i64 %10, %14
  store i64 %15, ptr %4, align 8, !tbaa !12
  call void @llvm.lifetime.start.p0(i64 8, ptr %5) #8
  %16 = load ptr, ptr %3, align 8, !tbaa !76
  %17 = getelementptr inbounds nuw %struct.dict, ptr %16, i32 0, i32 5
  %18 = getelementptr inbounds [2 x i8], ptr %17, i64 0, i64 0
  %19 = load i8, ptr %18, align 2, !tbaa !18
  %20 = sext i8 %19 to i32
  %21 = icmp eq i32 %20, -1
  br i1 %21, label %22, label %23

22:                                               ; preds = %1
  br label %31

23:                                               ; preds = %1
  %24 = load ptr, ptr %3, align 8, !tbaa !76
  %25 = getelementptr inbounds nuw %struct.dict, ptr %24, i32 0, i32 5
  %26 = getelementptr inbounds [2 x i8], ptr %25, i64 0, i64 0
  %27 = load i8, ptr %26, align 2, !tbaa !18
  %28 = sext i8 %27 to i32
  %29 = zext i32 %28 to i64
  %30 = shl i64 1, %29
  br label %31

31:                                               ; preds = %23, %22
  %32 = phi i64 [ 0, %22 ], [ %30, %23 ]
  %33 = load ptr, ptr %3, align 8, !tbaa !76
  %34 = getelementptr inbounds nuw %struct.dict, ptr %33, i32 0, i32 5
  %35 = getelementptr inbounds [2 x i8], ptr %34, i64 0, i64 1
  %36 = load i8, ptr %35, align 1, !tbaa !18
  %37 = sext i8 %36 to i32
  %38 = icmp eq i32 %37, -1
  br i1 %38, label %39, label %40

39:                                               ; preds = %31
  br label %48

40:                                               ; preds = %31
  %41 = load ptr, ptr %3, align 8, !tbaa !76
  %42 = getelementptr inbounds nuw %struct.dict, ptr %41, i32 0, i32 5
  %43 = getelementptr inbounds [2 x i8], ptr %42, i64 0, i64 1
  %44 = load i8, ptr %43, align 1, !tbaa !18
  %45 = sext i8 %44 to i32
  %46 = zext i32 %45 to i64
  %47 = shl i64 1, %46
  br label %48

48:                                               ; preds = %40, %39
  %49 = phi i64 [ 0, %39 ], [ %47, %40 ]
  %50 = add i64 %32, %49
  store i64 %50, ptr %5, align 8, !tbaa !23
  %51 = load i64, ptr %5, align 8, !tbaa !23
  %52 = icmp ugt i64 %51, 4
  br i1 %52, label %53, label %60

53:                                               ; preds = %48
  %54 = load i64, ptr %4, align 8, !tbaa !12
  %55 = mul nsw i64 %54, 100
  %56 = load i64, ptr %5, align 8, !tbaa !23
  %57 = udiv i64 %55, %56
  %58 = icmp ult i64 %57, 1
  br i1 %58, label %59, label %60

59:                                               ; preds = %53
  store i32 -1, ptr %2, align 4
  store i32 1, ptr %6, align 4
  br label %61

60:                                               ; preds = %53, %48
  store i32 0, ptr %2, align 4
  store i32 1, ptr %6, align 4
  br label %61

61:                                               ; preds = %60, %59
  call void @llvm.lifetime.end.p0(i64 8, ptr %5) #8
  call void @llvm.lifetime.end.p0(i64 8, ptr %4) #8
  %62 = load i32, ptr %2, align 4
  ret i32 %62
}