; Function Attrs: inlinehint mustprogress nofree norecurse nosync nounwind willreturn memory(argmem: read) uwtable
define internal range(i32 -1, 1) i32 @isExpiryDictValidForSamplingCb(ptr noundef readonly captures(none) %0) #4 {
  %2 = getelementptr inbounds nuw i8, ptr %0, i64 24
  %3 = load i64, ptr %2, align 8, !tbaa !12
  %4 = getelementptr inbounds nuw i8, ptr %0, i64 32
  %5 = load i64, ptr %4, align 8, !tbaa !12
  %6 = add i64 %5, %3
  %7 = getelementptr inbounds nuw i8, ptr %0, i64 50
  %8 = load i8, ptr %7, align 2, !tbaa !5
  %9 = icmp eq i8 %8, -1
  %10 = sext i8 %8 to i64
  %11 = and i64 %10, 4294967295
  %12 = shl nuw i64 1, %11
  %13 = select i1 %9, i64 0, i64 %12
  %14 = getelementptr inbounds nuw i8, ptr %0, i64 51
  %15 = load i8, ptr %14, align 1, !tbaa !5
  %16 = icmp eq i8 %15, -1
  %17 = sext i8 %15 to i64
  %18 = and i64 %17, 4294967295
  %19 = shl nuw i64 1, %18
  %20 = select i1 %16, i64 0, i64 %19
  %21 = add i64 %20, %13
  %22 = icmp ugt i64 %21, 4
  %23 = mul nsw i64 %6, 100
  %24 = icmp ugt i64 %21, %23
  %or.cond = select i1 %22, i1 %24, i1 false
  %.0 = sext i1 %or.cond to i32
  ret i32 %.0
}